; Function Attrs: mustprogress uwtable
define hidden void @_ZN11doc_manager3setER3docj4tbit(ptr noundef nonnull align 8 dereferenceable(1080) %this, ptr noundef nonnull align 8 dereferenceable(88) %d, i32 noundef %idx, i32 noundef %value) local_unnamed_addr #3 align 2 {
entry:
  %0 = load ptr, ptr %d, align 8
  tail call void @_ZN11tbv_manager3setER3tbvj4tbit(ptr noundef nonnull align 8 dereferenceable(552) %this, ptr noundef nonnull align 4 dereferenceable(4) %0, i32 noundef %idx, i32 noundef %value)
  %m_neg.i = getelementptr inbounds i8, ptr %d, i64 8
  %m_pos.i.i = getelementptr inbounds i8, ptr %d, i64 16
  %1 = load i32, ptr %m_pos.i.i, align 8
  %cmp23.not = icmp eq i32 %1, 0
  br i1 %cmp23.not, label %for.end, label %for.body.lr.ph

for.body.lr.ph:                                   ; preds = %entry
  %mul.i.i = shl i32 %idx, 1
  %div1.i.i.i.i = lshr i32 %mul.i.i, 5
  %idxprom.i.i.i.i = zext nneg i32 %div1.i.i.i.i to i64
  %rem.i.i.i.i = and i32 %mul.i.i, 30
  %shl.i.i.i.i = shl nuw nsw i32 1, %rem.i.i.i.i
  %rem.i.i6.i.i = or disjoint i32 %rem.i.i.i.i, 1
  %cmp8 = icmp eq i32 %value, 3
  br i1 %cmp8, label %for.body.us, label %for.body

for.body.us:                                      ; preds = %for.body.lr.ph, %for.body.us
  %indvars.iv = phi i64 [ %indvars.iv.next, %for.body.us ], [ 0, %for.body.lr.ph ]
  %2 = load ptr, ptr %m_neg.i, align 8
  %arrayidx.i.i.us = getelementptr inbounds ptr, ptr %2, i64 %indvars.iv
  %3 = load ptr, ptr %arrayidx.i.i.us, align 8
  tail call void @_ZN11tbv_manager3setER3tbvj4tbit(ptr noundef nonnull align 8 dereferenceable(552) %this, ptr noundef nonnull align 4 dereferenceable(4) %3, i32 noundef %idx, i32 noundef 3)
  %indvars.iv.next = add nuw nsw i64 %indvars.iv, 1
  %4 = load i32, ptr %m_pos.i.i, align 8
  %5 = zext i32 %4 to i64
  %cmp.us = icmp ult i64 %indvars.iv.next, %5
  br i1 %cmp.us, label %for.body.us, label %for.end, !llvm.loop !18

for.body:                                         ; preds = %for.body.lr.ph, %for.inc
  %i.024 = phi i32 [ %inc, %for.inc ], [ 0, %for.body.lr.ph ]
  %6 = load ptr, ptr %m_neg.i, align 8
  %idxprom.i.i = zext i32 %i.024 to i64
  %arrayidx.i.i = getelementptr inbounds ptr, ptr %6, i64 %idxprom.i.i
  %7 = load ptr, ptr %arrayidx.i.i, align 8
  %arrayidx.i.i.i.i = getelementptr inbounds [1 x i32], ptr %7, i64 0, i64 %idxprom.i.i.i.i
  %8 = load i32, ptr %arrayidx.i.i.i.i, align 4
  %and.i.i.i = and i32 %8, %shl.i.i.i.i
  %cmp.i.not.i.i = icmp eq i32 %and.i.i.i, 0
  %shl.i.i = select i1 %cmp.i.not.i.i, i32 0, i32 2
  %9 = lshr i32 %8, %rem.i.i6.i.i
  %conv3.i.i = and i32 %9, 1
  %or.i.i = or disjoint i32 %shl.i.i, %conv3.i.i
  %cmp7 = icmp eq i32 %or.i.i, 3
  %cmp10.not = icmp eq i32 %or.i.i, %value
  %or.cond16 = or i1 %cmp10.not, %cmp7
  br i1 %or.cond16, label %if.else, label %if.then

if.then:                                          ; preds = %for.body
  tail call void @_ZN10union_bvecI11tbv_manager3tbvE5eraseERS0_j(ptr noundef nonnull align 8 dereferenceable(80) %m_neg.i, ptr noundef nonnull align 8 dereferenceable(552) %this, i32 noundef %i.024)
  %dec = add i32 %i.024, -1
  br label %for.inc

if.else:                                          ; preds = %for.body
  tail call void @_ZN11tbv_manager3setER3tbvj4tbit(ptr noundef nonnull align 8 dereferenceable(552) %this, ptr noundef nonnull align 4 dereferenceable(4) %7, i32 noundef %idx, i32 noundef %value)
  br label %for.inc

for.inc:                                          ; preds = %if.then, %if.else
  %i.1 = phi i32 [ %dec, %if.then ], [ %i.024, %if.else ]
  %inc = add i32 %i.1, 1
  %10 = load i32, ptr %m_pos.i.i, align 8
  %cmp = icmp ult i32 %inc, %10
  br i1 %cmp, label %for.body, label %for.end, !llvm.loop !18

for.end:                                          ; preds = %for.inc, %for.body.us, %entry
  ret void
}